; Function Attrs: mustprogress nounwind uwtable
define internal fastcc void @_ZN7testing8internal26ParameterizedTestSuiteInfoIN12_GLOBAL__N_121NonTemporalMemcpyTestEE8TestInfoD2Ev(ptr noundef nonnull align 8 dereferenceable(112) %this) unnamed_addr #4 align 2 personality ptr @__gxx_personality_v0 {
entry:
  %code_location = getelementptr inbounds i8, ptr %this, i64 72
  tail call void @_ZNSt7__cxx1112basic_stringIcSt11char_traitsIcESaIcEED1Ev(ptr noundef nonnull align 8 dereferenceable(32) %code_location) #27
  %test_meta_factory = getelementptr inbounds i8, ptr %this, i64 64
  %0 = load ptr, ptr %test_meta_factory, align 8
  %cmp.not.i = icmp eq ptr %0, null
  br i1 %cmp.not.i, label %_ZNSt10unique_ptrIN7testing8internal19TestMetaFactoryBaseIN12_GLOBAL__N_19TestParamEEESt14default_deleteIS5_EED2Ev.exit, label %_ZNKSt14default_deleteIN7testing8internal19TestMetaFactoryBaseIN12_GLOBAL__N_19TestParamEEEEclEPS5_.exit.i

_ZNKSt14default_deleteIN7testing8internal19TestMetaFactoryBaseIN12_GLOBAL__N_19TestParamEEEEclEPS5_.exit.i: ; preds = %entry
  %vtable.i.i = load ptr, ptr %0, align 8
  %vfn.i.i = getelementptr inbounds i8, ptr %vtable.i.i, i64 8
  %1 = load ptr, ptr %vfn.i.i, align 8
  tail call void %1(ptr noundef nonnull align 8 dereferenceable(8) %0) #27
  br label %_ZNSt10unique_ptrIN7testing8internal19TestMetaFactoryBaseIN12_GLOBAL__N_19TestParamEEESt14default_deleteIS5_EED2Ev.exit

_ZNSt10unique_ptrIN7testing8internal19TestMetaFactoryBaseIN12_GLOBAL__N_19TestParamEEESt14default_deleteIS5_EED2Ev.exit: ; preds = %entry, %_ZNKSt14default_deleteIN7testing8internal19TestMetaFactoryBaseIN12_GLOBAL__N_19TestParamEEEEclEPS5_.exit.i
  store ptr null, ptr %test_meta_factory, align 8
  %test_base_name = getelementptr inbounds i8, ptr %this, i64 32
  tail call void @_ZNSt7__cxx1112basic_stringIcSt11char_traitsIcESaIcEED1Ev(ptr noundef nonnull align 8 dereferenceable(32) %test_base_name) #27
  tail call void @_ZNSt7__cxx1112basic_stringIcSt11char_traitsIcESaIcEED1Ev(ptr noundef nonnull align 8 dereferenceable(32) %this) #27
  ret void
}